target datalayout = "e-m:e-p270:32:32-p271:32:32-p272:64:64-i64:64-i128:128-f80:128-n8:16:32:64-S128"
target triple = "x86_64-unknown-linux-gnu"

%"class.std::__exception_ptr::exception_ptr" = type { ptr }
%class.anon.285 = type { ptr, ptr }
%class.anon.286 = type { i8, ptr, %class.anon.285 }

@_ZTISt9exception = external constant ptr
@_ZTIN8facebook5velox14VeloxExceptionE = linkonce_odr constant { ptr, ptr, ptr } { ptr getelementptr inbounds (ptr, ptr @_ZTVN10__cxxabiv120__si_class_type_infoE, i64 2), ptr @_ZTSN8facebook5velox14VeloxExceptionE, ptr @_ZTISt9exception }, comdat, align 8

; Function Attrs: mustprogress nounwind uwtable
define linkonce_odr void @_ZNSt15__exception_ptr13exception_ptrD2Ev(ptr noundef nonnull align 8 dereferenceable(8) %this) unnamed_addr #2 comdat align 2 {
entry:
  %this.addr = alloca ptr, align 8
  store ptr %this, ptr %this.addr, align 8
  %this1 = load ptr, ptr %this.addr, align 8
  %_M_exception_object = getelementptr inbounds %"class.std::__exception_ptr::exception_ptr", ptr %this1, i32 0, i32 0
  %0 = load ptr, ptr %_M_exception_object, align 8
  %tobool = icmp ne ptr %0, null
  br i1 %tobool, label %if.then, label %if.end

if.then:                                          ; preds = %entry
  call void @_ZNSt15__exception_ptr13exception_ptr10_M_releaseEv(ptr noundef nonnull align 8 dereferenceable(8) %this1) #16
  br label %if.end

if.end:                                           ; preds = %if.then, %entry
  ret void
}

; Function Attrs: mustprogress uwtable
define internal void @_ZZN8facebook5velox4bits10forEachBitIZNS0_4exec7EvalCtx22applyToSelectedNoThrowIZNKS0_9functions12_GLOBAL__N_120ExtremeValueFunctionILb1EE10applyTypedInEEvRKNS0_17SelectivityVectorERKSt6vectorISt10shared_ptrINS0_10BaseVectorEESaISH_EERKSF_IKNS0_4TypeEERS4_RSH_EUliE_EEvSD_T_EUlSU_E_EEvPKmiibSU_ENKUlimE_clEim(ptr noundef nonnull align 8 dereferenceable(32) %this, i32 noundef %idx, i64 noundef %mask) #0 align 2 personality ptr @__gxx_personality_v0 {
entry:
  %this.addr.i = alloca ptr, align 8
  %row.addr.i = alloca i32, align 4
  %exn.slot.i = alloca ptr, align 8
  %ehselector.slot.i = alloca i32, align 4
  %e.i = alloca ptr, align 8
  %ref.tmp.i = alloca %"class.std::__exception_ptr::exception_ptr", align 8
  %e7.i = alloca ptr, align 8
  %ref.tmp11.i = alloca %"class.std::__exception_ptr::exception_ptr", align 8
  %this.addr = alloca ptr, align 8
  %idx.addr = alloca i32, align 4
  %mask.addr = alloca i64, align 8
  %word = alloca i64, align 8
  store ptr %this, ptr %this.addr, align 8
  store i32 %idx, ptr %idx.addr, align 4
  store i64 %mask, ptr %mask.addr, align 8
  %this1 = load ptr, ptr %this.addr, align 8
  %0 = getelementptr inbounds %class.anon.286, ptr %this1, i32 0, i32 0
  %1 = load i8, ptr %0, align 8
  %tobool = trunc i8 %1 to i1
  br i1 %tobool, label %cond.true, label %cond.false

cond.true:                                        ; preds = %entry
  %2 = getelementptr inbounds %class.anon.286, ptr %this1, i32 0, i32 1
  %3 = load ptr, ptr %2, align 8
  %4 = load i32, ptr %idx.addr, align 4
  %idxprom = sext i32 %4 to i64
  %arrayidx = getelementptr inbounds i64, ptr %3, i64 %idxprom
  %5 = load i64, ptr %arrayidx, align 8
  br label %cond.end

cond.false:                                       ; preds = %entry
  %6 = getelementptr inbounds %class.anon.286, ptr %this1, i32 0, i32 1
  %7 = load ptr, ptr %6, align 8
  %8 = load i32, ptr %idx.addr, align 4
  %idxprom2 = sext i32 %8 to i64
  %arrayidx3 = getelementptr inbounds i64, ptr %7, i64 %idxprom2
  %9 = load i64, ptr %arrayidx3, align 8
  %not = xor i64 %9, -1
  br label %cond.end

cond.end:                                         ; preds = %cond.false, %cond.true
  %cond = phi i64 [ %5, %cond.true ], [ %not, %cond.false ]
  %10 = load i64, ptr %mask.addr, align 8
  %and = and i64 %cond, %10
  store i64 %and, ptr %word, align 8
  %11 = load i64, ptr %word, align 8
  %tobool4 = icmp ne i64 %11, 0
  br i1 %tobool4, label %if.end, label %if.then

if.then:                                          ; preds = %cond.end
  br label %while.end

if.end:                                           ; preds = %cond.end
  br label %while.cond

while.cond:                                       ; preds = %_ZZN8facebook5velox4exec7EvalCtx22applyToSelectedNoThrowIZNKS0_9functions12_GLOBAL__N_120ExtremeValueFunctionILb1EE10applyTypedInEEvRKNS0_17SelectivityVectorERKSt6vectorISt10shared_ptrINS0_10BaseVectorEESaISF_EERKSD_IKNS0_4TypeEERS2_RSF_EUliE_EEvSB_T_ENKUlSS_E_clIiEEDaSS_.exit, %if.end
  %12 = load i64, ptr %word, align 8
  %tobool5 = icmp ne i64 %12, 0
  br i1 %tobool5, label %while.body, label %while.end

while.body:                                       ; preds = %while.cond
  %13 = getelementptr inbounds %class.anon.286, ptr %this1, i32 0, i32 2
  %14 = load i32, ptr %idx.addr, align 4
  %mul = mul nsw i32 %14, 64
  %15 = load i64, ptr %word, align 8
  %16 = call i64 @llvm.cttz.i64(i64 %15, i1 true)
  %cast = trunc i64 %16 to i32
  %add = add nsw i32 %mul, %cast
  store ptr %13, ptr %this.addr.i, align 8
  store i32 %add, ptr %row.addr.i, align 4
  %this1.i = load ptr, ptr %this.addr.i, align 8
  %17 = getelementptr inbounds %class.anon.285, ptr %this1.i, i32 0, i32 1
  %18 = load ptr, ptr %17, align 8
  %19 = load ptr, ptr %this1.i, align 8
  %20 = load i32, ptr %row.addr.i, align 4
  invoke void @_ZZNK8facebook5velox9functions12_GLOBAL__N_120ExtremeValueFunctionILb1EE10applyTypedInEEvRKNS0_17SelectivityVectorERKSt6vectorISt10shared_ptrINS0_10BaseVectorEESaISC_EERKSA_IKNS0_4TypeEERNS0_4exec7EvalCtxERSC_ENKUliE_clEi(ptr noundef nonnull align 8 dereferenceable(40) %19, i32 noundef %20)
          to label %invoke.cont.i unwind label %lpad.i

invoke.cont.i:                                    ; preds = %while.body
  br label %_ZZN8facebook5velox4exec7EvalCtx22applyToSelectedNoThrowIZNKS0_9functions12_GLOBAL__N_120ExtremeValueFunctionILb1EE10applyTypedInEEvRKNS0_17SelectivityVectorERKSt6vectorISt10shared_ptrINS0_10BaseVectorEESaISF_EERKSD_IKNS0_4TypeEERS2_RSF_EUliE_EEvSB_T_ENKUlSS_E_clIiEEDaSS_.exit

lpad.i:                                           ; preds = %while.body
  %21 = landingpad { ptr, i32 }
          catch ptr @_ZTIN8facebook5velox14VeloxExceptionE
          catch ptr @_ZTISt9exception
  %22 = extractvalue { ptr, i32 } %21, 0
  store ptr %22, ptr %exn.slot.i, align 8
  %23 = extractvalue { ptr, i32 } %21, 1
  store i32 %23, ptr %ehselector.slot.i, align 4
  %sel.i = load i32, ptr %ehselector.slot.i, align 4
  %24 = call i32 @llvm.eh.typeid.for(ptr @_ZTIN8facebook5velox14VeloxExceptionE) #16
  %matches.i = icmp eq i32 %sel.i, %24
  br i1 %matches.i, label %catch6.i, label %catch.fallthrough.i

catch6.i:                                         ; preds = %lpad.i
  %exn8.i = load ptr, ptr %exn.slot.i, align 8
  %25 = call ptr @__cxa_begin_catch(ptr %exn8.i) #16
  store ptr %25, ptr %e7.i, align 8
  %26 = load ptr, ptr %e7.i, align 8
  %call.i = invoke noundef zeroext i1 @_ZNK8facebook5velox14VeloxException11isUserErrorEv(ptr noundef nonnull align 8 dereferenceable(24) %26)
          to label %invoke.cont10.i unwind label %lpad9.i

invoke.cont10.i:                                  ; preds = %catch6.i
  br i1 %call.i, label %if.end.i, label %if.then.i

if.then.i:                                        ; preds = %invoke.cont10.i
  invoke void @__cxa_rethrow() #19
          to label %unreachable.i unwind label %lpad9.i

catch.fallthrough.i:                              ; preds = %lpad.i
  %27 = call i32 @llvm.eh.typeid.for(ptr @_ZTISt9exception) #16
  %matches2.i = icmp eq i32 %sel.i, %27
  br i1 %matches2.i, label %catch.i, label %eh.resume.i

catch.i:                                          ; preds = %catch.fallthrough.i
  %exn.i = load ptr, ptr %exn.slot.i, align 8
  %28 = call ptr @__cxa_begin_catch(ptr %exn.i) #16
  store ptr %28, ptr %e.i, align 8
  %29 = load i32, ptr %row.addr.i, align 4
  call void @_ZSt17current_exceptionv(ptr sret(%"class.std::__exception_ptr::exception_ptr") align 8 %ref.tmp.i) #16
  invoke void @_ZN8facebook5velox4exec7EvalCtx8setErrorEiRKNSt15__exception_ptr13exception_ptrE(ptr noundef nonnull align 8 dereferenceable(104) %18, i32 noundef %29, ptr noundef nonnull align 8 dereferenceable(8) %ref.tmp.i)
          to label %invoke.cont4.i unwind label %lpad3.i

invoke.cont4.i:                                   ; preds = %catch.i
  call void @_ZNSt15__exception_ptr13exception_ptrD2Ev(ptr noundef nonnull align 8 dereferenceable(8) %ref.tmp.i) #16
  call void @__cxa_end_catch()
  br label %_ZZN8facebook5velox4exec7EvalCtx22applyToSelectedNoThrowIZNKS0_9functions12_GLOBAL__N_120ExtremeValueFunctionILb1EE10applyTypedInEEvRKNS0_17SelectivityVectorERKSt6vectorISt10shared_ptrINS0_10BaseVectorEESaISF_EERKSD_IKNS0_4TypeEERS2_RSF_EUliE_EEvSB_T_ENKUlSS_E_clIiEEDaSS_.exit

lpad3.i:                                          ; preds = %catch.i
  %30 = landingpad { ptr, i32 }
          cleanup
  %31 = extractvalue { ptr, i32 } %30, 0
  store ptr %31, ptr %exn.slot.i, align 8
  %32 = extractvalue { ptr, i32 } %30, 1
  store i32 %32, ptr %ehselector.slot.i, align 4
  call void @_ZNSt15__exception_ptr13exception_ptrD2Ev(ptr noundef nonnull align 8 dereferenceable(8) %ref.tmp.i) #16
  invoke void @__cxa_end_catch()
          to label %invoke.cont5.i unwind label %terminate.lpad.i

invoke.cont5.i:                                   ; preds = %lpad3.i
  br label %eh.resume.i

lpad9.i:                                          ; preds = %if.then.i, %catch6.i
  %33 = landingpad { ptr, i32 }
          cleanup
  %34 = extractvalue { ptr, i32 } %33, 0
  store ptr %34, ptr %exn.slot.i, align 8
  %35 = extractvalue { ptr, i32 } %33, 1
  store i32 %35, ptr %ehselector.slot.i, align 4
  br label %ehcleanup.i

if.end.i:                                         ; preds = %invoke.cont10.i
  %36 = load i32, ptr %row.addr.i, align 4
  call void @_ZSt17current_exceptionv(ptr sret(%"class.std::__exception_ptr::exception_ptr") align 8 %ref.tmp11.i) #16
  invoke void @_ZN8facebook5velox4exec7EvalCtx22setVeloxExceptionErrorEiRKNSt15__exception_ptr13exception_ptrE(ptr noundef nonnull align 8 dereferenceable(104) %18, i32 noundef %36, ptr noundef nonnull align 8 dereferenceable(8) %ref.tmp11.i)
          to label %invoke.cont13.i unwind label %lpad12.i

invoke.cont13.i:                                  ; preds = %if.end.i
  call void @_ZNSt15__exception_ptr13exception_ptrD2Ev(ptr noundef nonnull align 8 dereferenceable(8) %ref.tmp11.i) #16
  call void @__cxa_end_catch()
  br label %_ZZN8facebook5velox4exec7EvalCtx22applyToSelectedNoThrowIZNKS0_9functions12_GLOBAL__N_120ExtremeValueFunctionILb1EE10applyTypedInEEvRKNS0_17SelectivityVectorERKSt6vectorISt10shared_ptrINS0_10BaseVectorEESaISF_EERKSD_IKNS0_4TypeEERS2_RSF_EUliE_EEvSB_T_ENKUlSS_E_clIiEEDaSS_.exit

lpad12.i:                                         ; preds = %if.end.i
  %37 = landingpad { ptr, i32 }
          cleanup
  %38 = extractvalue { ptr, i32 } %37, 0
  store ptr %38, ptr %exn.slot.i, align 8
  %39 = extractvalue { ptr, i32 } %37, 1
  store i32 %39, ptr %ehselector.slot.i, align 4
  call void @_ZNSt15__exception_ptr13exception_ptrD2Ev(ptr noundef nonnull align 8 dereferenceable(8) %ref.tmp11.i) #16
  br label %ehcleanup.i

ehcleanup.i:                                      ; preds = %lpad12.i, %lpad9.i
  invoke void @__cxa_end_catch()
          to label %invoke.cont14.i unwind label %terminate.lpad.i

invoke.cont14.i:                                  ; preds = %ehcleanup.i
  br label %eh.resume.i

eh.resume.i:                                      ; preds = %invoke.cont14.i, %invoke.cont5.i, %catch.fallthrough.i
  %exn15.i = load ptr, ptr %exn.slot.i, align 8
  %sel16.i = load i32, ptr %ehselector.slot.i, align 4
  %lpad.val.i = insertvalue { ptr, i32 } poison, ptr %exn15.i, 0
  %lpad.val17.i = insertvalue { ptr, i32 } %lpad.val.i, i32 %sel16.i, 1
  resume { ptr, i32 } %lpad.val17.i

terminate.lpad.i:                                 ; preds = %ehcleanup.i, %lpad3.i
  %40 = landingpad { ptr, i32 }
          catch ptr null
  %41 = extractvalue { ptr, i32 } %40, 0
  call void @__clang_call_terminate(ptr %41) #18
  unreachable

unreachable.i:                                    ; preds = %if.then.i
  unreachable

_ZZN8facebook5velox4exec7EvalCtx22applyToSelectedNoThrowIZNKS0_9functions12_GLOBAL__N_120ExtremeValueFunctionILb1EE10applyTypedInEEvRKNS0_17SelectivityVectorERKSt6vectorISt10shared_ptrINS0_10BaseVectorEESaISF_EERKSD_IKNS0_4TypeEERS2_RSF_EUliE_EEvSB_T_ENKUlSS_E_clIiEEDaSS_.exit: ; preds = %invoke.cont13.i, %invoke.cont4.i, %invoke.cont.i
  %42 = load i64, ptr %word, align 8
  %sub = sub i64 %42, 1
  %43 = load i64, ptr %word, align 8
  %and6 = and i64 %43, %sub
  store i64 %and6, ptr %word, align 8
  br label %while.cond, !llvm.loop !63

while.end:                                        ; preds = %while.cond, %if.then
  ret void
}